target datalayout = "e-m:e-p270:32:32-p271:32:32-p272:64:64-i64:64-i128:128-f80:128-n8:16:32:64-S128"
target triple = "x86_64-pc-linux-gnu"

%struct.pmi2_tree_info = type { ptr, ptr, i32, i32, i32, i32, i16, ptr, ptr }
%struct.buf_t = type { i32, ptr, i32, i32, i8, i8 }

@plugin_type = external constant [0 x i8], align 1
@tree_info = external global %struct.pmi2_tree_info, align 8
@.str.50 = private unnamed_addr constant [42 x i8] c"%s: %s: mpi/pmi2: in _handle_name_publish\00", align 1
@__func__._handle_name_publish = private unnamed_addr constant [21 x i8] c"_handle_name_publish\00", align 1
@.str.51 = private unnamed_addr constant [43 x i8] c"%s: %s: mpi/pmi2: out _handle_name_publish\00", align 1

; Function Attrs: nounwind uwtable
define internal i32 @_handle_name_publish(i32 noundef %0, ptr noundef %1) #0 {
  %3 = alloca i32, align 4
  %4 = alloca i32, align 4
  %5 = alloca ptr, align 8
  %6 = alloca i32, align 4
  %7 = alloca ptr, align 8
  %8 = alloca ptr, align 8
  %9 = alloca ptr, align 8
  %10 = alloca i32, align 4
  %11 = alloca i32, align 4
  %12 = alloca i32, align 4
  store i32 %0, ptr %4, align 4
  store ptr %1, ptr %5, align 8
  call void @llvm.lifetime.start.p0(i64 4, ptr %6) #6
  call void @llvm.lifetime.start.p0(i64 8, ptr %7) #6
  store ptr null, ptr %7, align 8
  call void @llvm.lifetime.start.p0(i64 8, ptr %8) #6
  store ptr null, ptr %8, align 8
  call void @llvm.lifetime.start.p0(i64 8, ptr %9) #6
  store ptr null, ptr %9, align 8
  br label %13

13:                                               ; preds = %2
  br label %14

14:                                               ; preds = %13
  %15 = call i32 @slurm_get_log_level()
  %16 = icmp sge i32 %15, 7
  br i1 %16, label %17, label %18

17:                                               ; preds = %14
  call void (i32, ptr, ...) @slurm_log_var(i32 noundef 7, ptr noundef @.str.50, ptr noundef @plugin_type, ptr noundef @__func__._handle_name_publish)
  br label %18

18:                                               ; preds = %17, %14
  br label %19

19:                                               ; preds = %18
  br label %20

20:                                               ; preds = %19
  br label %21

21:                                               ; preds = %20
  br label %22

22:                                               ; preds = %21
  br label %23

23:                                               ; preds = %22
  call void @llvm.lifetime.start.p0(i64 4, ptr %10) #6
  %24 = load ptr, ptr %5, align 8
  %25 = call i32 @slurm_unpackstr_xmalloc_chooser(ptr noundef %7, ptr noundef %10, ptr noundef %24)
  %26 = icmp ne i32 %25, 0
  br i1 %26, label %27, label %28

27:                                               ; preds = %23
  store i32 8, ptr %11, align 4
  br label %29

28:                                               ; preds = %23
  store i32 0, ptr %11, align 4
  br label %29

29:                                               ; preds = %27, %28
  call void @llvm.lifetime.end.p0(i64 4, ptr %10) #6
  %30 = load i32, ptr %11, align 4
  switch i32 %30, label %90 [
    i32 0, label %31
    i32 8, label %89
  ]

31:                                               ; preds = %29
  br label %32

32:                                               ; preds = %31
  br label %33

33:                                               ; preds = %32
  br label %34

34:                                               ; preds = %33
  call void @llvm.lifetime.start.p0(i64 4, ptr %12) #6
  %35 = load ptr, ptr %5, align 8
  %36 = call i32 @slurm_unpackstr_xmalloc_chooser(ptr noundef %8, ptr noundef %12, ptr noundef %35)
  %37 = icmp ne i32 %36, 0
  br i1 %37, label %38, label %39

38:                                               ; preds = %34
  store i32 8, ptr %11, align 4
  br label %40

39:                                               ; preds = %34
  store i32 0, ptr %11, align 4
  br label %40

40:                                               ; preds = %38, %39
  call void @llvm.lifetime.end.p0(i64 4, ptr %12) #6
  %41 = load i32, ptr %11, align 4
  switch i32 %41, label %90 [
    i32 0, label %42
    i32 8, label %89
  ]

42:                                               ; preds = %40
  br label %43

43:                                               ; preds = %42
  br label %44

44:                                               ; preds = %43
  %45 = load ptr, ptr getelementptr inbounds nuw (%struct.pmi2_tree_info, ptr @tree_info, i32 0, i32 7), align 8
  %46 = icmp ne ptr %45, null
  br i1 %46, label %47, label %51

47:                                               ; preds = %44
  %48 = load ptr, ptr %7, align 8
  %49 = load ptr, ptr %8, align 8
  %50 = call i32 @name_publish_up(ptr noundef %48, ptr noundef %49)
  store i32 %50, ptr %6, align 4
  br label %55

51:                                               ; preds = %44
  %52 = load ptr, ptr %7, align 8
  %53 = load ptr, ptr %8, align 8
  %54 = call i32 @name_publish_local(ptr noundef %52, ptr noundef %53)
  store i32 %54, ptr %6, align 4
  br label %55

55:                                               ; preds = %51, %47
  br label %56

56:                                               ; preds = %89, %55
  call void @slurm_xfree(ptr noundef %7)
  call void @slurm_xfree(ptr noundef %8)
  %57 = call ptr @slurm_init_buf(i32 noundef 32)
  store ptr %57, ptr %9, align 8
  %58 = load i32, ptr %6, align 4
  %59 = load ptr, ptr %9, align 8
  call void @slurm_pack32(i32 noundef %58, ptr noundef %59)
  %60 = load i32, ptr %4, align 4
  %61 = load ptr, ptr %9, align 8
  %62 = getelementptr inbounds nuw %struct.buf_t, ptr %61, i32 0, i32 1
  %63 = load ptr, ptr %62, align 8
  %64 = load ptr, ptr %9, align 8
  %65 = getelementptr inbounds nuw %struct.buf_t, ptr %64, i32 0, i32 3
  %66 = load i32, ptr %65, align 4
  %67 = zext i32 %66 to i64
  %68 = call i64 @slurm_msg_sendto(i32 noundef %60, ptr noundef %63, i64 noundef %67)
  %69 = trunc i64 %68 to i32
  store i32 %69, ptr %6, align 4
  br label %70

70:                                               ; preds = %56
  %71 = load ptr, ptr %9, align 8
  %72 = icmp ne ptr %71, null
  br i1 %72, label %73, label %75

73:                                               ; preds = %70
  %74 = load ptr, ptr %9, align 8
  call void @slurm_free_buf(ptr noundef %74)
  br label %75

75:                                               ; preds = %73, %70
  store ptr null, ptr %9, align 8
  br label %76

76:                                               ; preds = %75
  br label %77

77:                                               ; preds = %76
  br label %78

78:                                               ; preds = %77
  br label %79

79:                                               ; preds = %78
  %80 = call i32 @slurm_get_log_level()
  %81 = icmp sge i32 %80, 7
  br i1 %81, label %82, label %83

82:                                               ; preds = %79
  call void (i32, ptr, ...) @slurm_log_var(i32 noundef 7, ptr noundef @.str.51, ptr noundef @plugin_type, ptr noundef @__func__._handle_name_publish)
  br label %83

83:                                               ; preds = %82, %79
  br label %84

84:                                               ; preds = %83
  br label %85

85:                                               ; preds = %84
  br label %86

86:                                               ; preds = %85
  br label %87

87:                                               ; preds = %86
  %88 = load i32, ptr %6, align 4
  store i32 %88, ptr %3, align 4
  store i32 1, ptr %11, align 4
  br label %90

89:                                               ; preds = %40, %29
  store i32 -1, ptr %6, align 4
  br label %56

90:                                               ; preds = %87, %40, %29
  call void @llvm.lifetime.end.p0(i64 8, ptr %9) #6
  call void @llvm.lifetime.end.p0(i64 8, ptr %8) #6
  call void @llvm.lifetime.end.p0(i64 8, ptr %7) #6
  call void @llvm.lifetime.end.p0(i64 4, ptr %6) #6
  %91 = load i32, ptr %3, align 4
  ret i32 %91
}