; Function Attrs: nounwind uwtable
define internal i32 @_handle_name_publish(i32 noundef %0, ptr noundef %1) #0 {
  %3 = alloca ptr, align 8
  %4 = alloca ptr, align 8
  %5 = alloca i32, align 4
  %6 = alloca i32, align 4
  call void @llvm.lifetime.start.p0(i64 8, ptr nonnull %3) #7
  store ptr null, ptr %3, align 8
  call void @llvm.lifetime.start.p0(i64 8, ptr nonnull %4) #7
  store ptr null, ptr %4, align 8
  %7 = tail call i32 @slurm_get_log_level() #7
  %8 = icmp sgt i32 %7, 6
  br i1 %8, label %9, label %10

9:                                                ; preds = %2
  tail call void (i32, ptr, ...) @slurm_log_var(i32 noundef 7, ptr noundef nonnull @.str.50, ptr noundef nonnull @plugin_type, ptr noundef nonnull @__func__._handle_name_publish) #7
  br label %10

10:                                               ; preds = %2, %9
  call void @llvm.lifetime.start.p0(i64 4, ptr nonnull %5) #7
  %11 = call i32 @slurm_unpackstr_xmalloc_chooser(ptr noundef nonnull %3, ptr noundef nonnull %5, ptr noundef %1) #7
  %.not = icmp eq i32 %11, 0
  call void @llvm.lifetime.end.p0(i64 4, ptr nonnull %5) #7
  br i1 %.not, label %12, label %22

12:                                               ; preds = %10
  call void @llvm.lifetime.start.p0(i64 4, ptr nonnull %6) #7
  %13 = call i32 @slurm_unpackstr_xmalloc_chooser(ptr noundef nonnull %4, ptr noundef nonnull %6, ptr noundef %1) #7
  %.not15 = icmp eq i32 %13, 0
  call void @llvm.lifetime.end.p0(i64 4, ptr nonnull %6) #7
  br i1 %.not15, label %14, label %22

14:                                               ; preds = %12
  %15 = load ptr, ptr getelementptr inbounds nuw (i8, ptr @tree_info, i64 40), align 8
  %.not16 = icmp eq ptr %15, null
  %16 = load ptr, ptr %3, align 8
  %17 = load ptr, ptr %4, align 8
  br i1 %.not16, label %20, label %18

18:                                               ; preds = %14
  %19 = call i32 @name_publish_up(ptr noundef %16, ptr noundef %17) #7
  br label %22

20:                                               ; preds = %14
  %21 = call i32 @name_publish_local(ptr noundef %16, ptr noundef %17) #7
  br label %22

22:                                               ; preds = %12, %10, %18, %20
  %.012 = phi i32 [ %19, %18 ], [ %21, %20 ], [ -1, %12 ], [ -1, %10 ]
  call void @slurm_xfree(ptr noundef nonnull %3) #7
  call void @slurm_xfree(ptr noundef nonnull %4) #7
  %23 = call ptr @slurm_init_buf(i32 noundef 32) #7
  call void @slurm_pack32(i32 noundef %.012, ptr noundef %23) #7
  %24 = getelementptr inbounds nuw i8, ptr %23, i64 8
  %25 = load ptr, ptr %24, align 8
  %26 = getelementptr inbounds nuw i8, ptr %23, i64 20
  %27 = load i32, ptr %26, align 4
  %28 = zext i32 %27 to i64
  %29 = call i64 @slurm_msg_sendto(i32 noundef %0, ptr noundef %25, i64 noundef %28) #7
  call void @slurm_free_buf(ptr noundef nonnull %23) #7
  %30 = call i32 @slurm_get_log_level() #7
  %31 = icmp sgt i32 %30, 6
  br i1 %31, label %32, label %33

32:                                               ; preds = %22
  call void (i32, ptr, ...) @slurm_log_var(i32 noundef 7, ptr noundef nonnull @.str.51, ptr noundef nonnull @plugin_type, ptr noundef nonnull @__func__._handle_name_publish) #7
  br label %33

33:                                               ; preds = %22, %32
  %34 = trunc i64 %29 to i32
  call void @llvm.lifetime.end.p0(i64 8, ptr nonnull %4) #7
  call void @llvm.lifetime.end.p0(i64 8, ptr nonnull %3) #7
  ret i32 %34
}